target datalayout = "e-m:e-p270:32:32-p271:32:32-p272:64:64-i64:64-i128:128-f80:128-n8:16:32:64-S128"
target triple = "x86_64-pc-linux-gnu"

%struct.global_State = type { ptr, ptr, %struct.GCState, %struct.GCstr, i8, i8, i8, i8, %struct.StrInternState, i32, %struct.GCRef, %struct.SBuf, %union.TValue, %union.TValue, %struct.Node, %union.TValue, %struct.GCupval, i32, i32, ptr, ptr, ptr, i32, i32, %struct.GCRef, %struct.MRef, %struct.MRef, %struct.PRNGState, [39 x %struct.GCRef] }
%struct.GCState = type { i64, i64, i8, i8, i8, i8, i32, %struct.GCRef, %struct.MRef, %struct.GCRef, %struct.GCRef, %struct.GCRef, %struct.GCRef, i64, i64, i32, i32, %struct.MRef }
%struct.GCstr = type { %struct.GCRef, i8, i8, i8, i8, i32, i32, i32 }
%struct.StrInternState = type { ptr, i32, i32, i32, i8, i8, i8, i8, i64 }
%struct.SBuf = type { ptr, ptr, ptr, %struct.MRef }
%struct.Node = type { %union.TValue, %union.TValue, %struct.MRef }
%union.TValue = type { i64 }
%struct.GCupval = type { %struct.GCRef, i8, i8, i8, i8, %union.anon, %struct.MRef, i32 }
%union.anon = type { %struct.anon.1 }
%struct.anon.1 = type { %struct.GCRef, %struct.GCRef }
%struct.GCRef = type { i64 }
%struct.MRef = type { i64 }
%struct.PRNGState = type { [4 x i64] }
%struct.lua_State = type { %struct.GCRef, i8, i8, i8, i8, %struct.MRef, %struct.GCRef, ptr, ptr, %struct.MRef, %struct.MRef, %struct.GCRef, %struct.GCRef, ptr, i32 }
%struct.GChead = type { %struct.GCRef, i8, i8, i8, i8, %struct.GCRef, %struct.GCRef, %struct.GCRef }
%struct.GG_State = type { %struct.lua_State, %struct.global_State, %struct.jit_State, [64 x i16], [243 x ptr], [57 x i32] }
%struct.jit_State = type { %struct.GCtrace, ptr, ptr, ptr, ptr, ptr, ptr, i32, i32, i32, i8, i8, %struct.IRType1, i8, %struct.FoldState, ptr, i32, i32, i32, i32, i32, i32, i32, [1 x i32], [5 x %union.TValue], [3 x %union.TValue], ptr, i32, i32, i32, i32, ptr, ptr, i32, i32, i8, ptr, i32, i32, i16, [101 x i16], [258 x i32], [15 x i32], [16 x ptr], [64 x %struct.HotPenalty], i32, [16 x %struct.BPropEntry], i32, %struct.ScEvEntry, ptr, i32, i32, i32, ptr, i32, i32, ptr, ptr, ptr, i64, i64, %union.TValue, ptr, i32, i32 }
%struct.GCtrace = type { %struct.GCRef, i8, i8, i16, i32, i32, %struct.GCRef, ptr, i32, i32, ptr, ptr, %struct.GCRef, %struct.MRef, i32, i32, ptr, i32, i16, i16, i16, i16, i16, i16, i16, i8, i8, i8, i8 }
%struct.IRType1 = type { i8 }
%struct.FoldState = type { %union.IRIns, [2 x %union.IRIns], [2 x %union.IRIns] }
%union.IRIns = type { %struct.GCRef }
%struct.HotPenalty = type { %struct.MRef, i16, i16 }
%struct.BPropEntry = type { i16, i16, i32 }
%struct.ScEvEntry = type { %struct.MRef, i16, i16, i16, i16, %struct.IRType1, i8 }
%struct.anon.3 = type { i32, %struct.IRType1, i8, i8, i8 }

; Function Attrs: nounwind uwtable
define internal void @gc_marktrace(ptr noundef %0, i32 noundef %1) #0 {
  %3 = alloca ptr, align 8
  %4 = alloca i32, align 4
  %5 = alloca ptr, align 8
  store ptr %0, ptr %3, align 8, !tbaa !4
  store i32 %1, ptr %4, align 4, !tbaa !9
  call void @llvm.lifetime.start.p0(i64 8, ptr %5) #7
  %6 = load ptr, ptr %3, align 8, !tbaa !4
  %7 = getelementptr inbounds i8, ptr %6, i64 -96
  %8 = getelementptr inbounds nuw %struct.GG_State, ptr %7, i32 0, i32 2
  %9 = getelementptr inbounds nuw %struct.jit_State, ptr %8, i32 0, i32 36
  %10 = load ptr, ptr %9, align 8, !tbaa !112
  %11 = load i32, ptr %4, align 4, !tbaa !9
  %12 = zext i32 %11 to i64
  %13 = getelementptr inbounds nuw %struct.GCRef, ptr %10, i64 %12
  %14 = getelementptr inbounds nuw %struct.GCRef, ptr %13, i32 0, i32 0
  %15 = load i64, ptr %14, align 8, !tbaa !27
  %16 = inttoptr i64 %15 to ptr
  store ptr %16, ptr %5, align 8, !tbaa !28
  %17 = load ptr, ptr %5, align 8, !tbaa !28
  %18 = getelementptr inbounds nuw %struct.GChead, ptr %17, i32 0, i32 1
  %19 = load i8, ptr %18, align 8, !tbaa !30
  %20 = zext i8 %19 to i32
  %21 = and i32 %20, 3
  %22 = icmp ne i32 %21, 0
  br i1 %22, label %23, label %44

23:                                               ; preds = %2
  %24 = load ptr, ptr %5, align 8, !tbaa !28
  %25 = getelementptr inbounds nuw %struct.GChead, ptr %24, i32 0, i32 1
  %26 = load i8, ptr %25, align 8, !tbaa !30
  %27 = zext i8 %26 to i32
  %28 = and i32 %27, 252
  %29 = trunc i32 %28 to i8
  store i8 %29, ptr %25, align 8, !tbaa !30
  %30 = load ptr, ptr %3, align 8, !tbaa !4
  %31 = getelementptr inbounds nuw %struct.global_State, ptr %30, i32 0, i32 2
  %32 = getelementptr inbounds nuw %struct.GCState, ptr %31, i32 0, i32 9
  %33 = getelementptr inbounds nuw %struct.GCRef, ptr %32, i32 0, i32 0
  %34 = load i64, ptr %33, align 8, !tbaa !88
  %35 = load ptr, ptr %5, align 8, !tbaa !28
  %36 = getelementptr inbounds nuw %struct.GChead, ptr %35, i32 0, i32 6
  %37 = getelementptr inbounds nuw %struct.GCRef, ptr %36, i32 0, i32 0
  store i64 %34, ptr %37, align 8, !tbaa !30
  %38 = load ptr, ptr %5, align 8, !tbaa !28
  %39 = ptrtoint ptr %38 to i64
  %40 = load ptr, ptr %3, align 8, !tbaa !4
  %41 = getelementptr inbounds nuw %struct.global_State, ptr %40, i32 0, i32 2
  %42 = getelementptr inbounds nuw %struct.GCState, ptr %41, i32 0, i32 9
  %43 = getelementptr inbounds nuw %struct.GCRef, ptr %42, i32 0, i32 0
  store i64 %39, ptr %43, align 8, !tbaa !88
  br label %44

44:                                               ; preds = %23, %2
  call void @llvm.lifetime.end.p0(i64 8, ptr %5) #7
  ret void
}

; Function Attrs: nounwind uwtable
define internal void @gc_traverse_trace(ptr noundef %0, ptr noundef %1) #0 {
  %3 = alloca ptr, align 8
  %4 = alloca ptr, align 8
  %5 = alloca i32, align 4
  %6 = alloca i32, align 4
  %7 = alloca ptr, align 8
  store ptr %0, ptr %3, align 8, !tbaa !4
  store ptr %1, ptr %4, align 8, !tbaa !125
  call void @llvm.lifetime.start.p0(i64 4, ptr %5) #7
  %8 = load ptr, ptr %4, align 8, !tbaa !125
  %9 = getelementptr inbounds nuw %struct.GCtrace, ptr %8, i32 0, i32 20
  %10 = load i16, ptr %9, align 8, !tbaa !148
  %11 = zext i16 %10 to i32
  %12 = icmp eq i32 %11, 0
  br i1 %12, label %13, label %14

13:                                               ; preds = %2
  store i32 1, ptr %6, align 4
  br label %127

14:                                               ; preds = %2
  %15 = load ptr, ptr %4, align 8, !tbaa !125
  %16 = getelementptr inbounds nuw %struct.GCtrace, ptr %15, i32 0, i32 8
  %17 = load i32, ptr %16, align 8, !tbaa !127
  store i32 %17, ptr %5, align 4, !tbaa !9
  br label %18

18:                                               ; preds = %72, %14
  %19 = load i32, ptr %5, align 4, !tbaa !9
  %20 = icmp ult i32 %19, 32765
  br i1 %20, label %21, label %75

21:                                               ; preds = %18
  call void @llvm.lifetime.start.p0(i64 8, ptr %7) #7
  %22 = load ptr, ptr %4, align 8, !tbaa !125
  %23 = getelementptr inbounds nuw %struct.GCtrace, ptr %22, i32 0, i32 7
  %24 = load ptr, ptr %23, align 8, !tbaa !149
  %25 = load i32, ptr %5, align 4, !tbaa !9
  %26 = zext i32 %25 to i64
  %27 = getelementptr inbounds nuw %union.IRIns, ptr %24, i64 %26
  store ptr %27, ptr %7, align 8, !tbaa !150
  %28 = load ptr, ptr %7, align 8, !tbaa !150
  %29 = getelementptr inbounds nuw %struct.anon.3, ptr %28, i32 0, i32 2
  %30 = load i8, ptr %29, align 1, !tbaa !30
  %31 = zext i8 %30 to i32
  %32 = icmp eq i32 %31, 24
  br i1 %32, label %33, label %52

33:                                               ; preds = %21
  %34 = load ptr, ptr %7, align 8, !tbaa !150
  %35 = getelementptr inbounds %union.IRIns, ptr %34, i64 1
  %36 = getelementptr inbounds nuw %struct.GCRef, ptr %35, i32 0, i32 0
  %37 = load i64, ptr %36, align 8, !tbaa !30
  %38 = inttoptr i64 %37 to ptr
  %39 = getelementptr inbounds nuw %struct.GChead, ptr %38, i32 0, i32 1
  %40 = load i8, ptr %39, align 8, !tbaa !30
  %41 = zext i8 %40 to i32
  %42 = and i32 %41, 3
  %43 = icmp ne i32 %42, 0
  br i1 %43, label %44, label %51

44:                                               ; preds = %33
  %45 = load ptr, ptr %3, align 8, !tbaa !4
  %46 = load ptr, ptr %7, align 8, !tbaa !150
  %47 = getelementptr inbounds %union.IRIns, ptr %46, i64 1
  %48 = getelementptr inbounds nuw %struct.GCRef, ptr %47, i32 0, i32 0
  %49 = load i64, ptr %48, align 8, !tbaa !30
  %50 = inttoptr i64 %49 to ptr
  call void @gc_mark(ptr noundef %45, ptr noundef %50)
  br label %51

51:                                               ; preds = %44, %33
  br label %52

52:                                               ; preds = %51, %21
  %53 = load ptr, ptr %7, align 8, !tbaa !150
  %54 = getelementptr inbounds nuw %struct.anon.3, ptr %53, i32 0, i32 1
  %55 = getelementptr inbounds nuw %struct.IRType1, ptr %54, i32 0, i32 0
  %56 = load i8, ptr %55, align 4, !tbaa !30
  %57 = zext i8 %56 to i32
  %58 = and i32 %57, 31
  %59 = lshr i32 6315993, %58
  %60 = and i32 %59, 1
  %61 = icmp ne i32 %60, 0
  br i1 %61, label %62, label %71

62:                                               ; preds = %52
  %63 = load ptr, ptr %7, align 8, !tbaa !150
  %64 = getelementptr inbounds nuw %struct.anon.3, ptr %63, i32 0, i32 2
  %65 = load i8, ptr %64, align 1, !tbaa !30
  %66 = zext i8 %65 to i32
  %67 = icmp ne i32 %66, 27
  br i1 %67, label %68, label %71

68:                                               ; preds = %62
  %69 = load i32, ptr %5, align 4, !tbaa !9
  %70 = add i32 %69, 1
  store i32 %70, ptr %5, align 4, !tbaa !9
  br label %71

71:                                               ; preds = %68, %62, %52
  call void @llvm.lifetime.end.p0(i64 8, ptr %7) #7
  br label %72

72:                                               ; preds = %71
  %73 = load i32, ptr %5, align 4, !tbaa !9
  %74 = add i32 %73, 1
  store i32 %74, ptr %5, align 4, !tbaa !9
  br label %18, !llvm.loop !151

75:                                               ; preds = %18
  %76 = load ptr, ptr %4, align 8, !tbaa !125
  %77 = getelementptr inbounds nuw %struct.GCtrace, ptr %76, i32 0, i32 21
  %78 = load i16, ptr %77, align 2, !tbaa !152
  %79 = icmp ne i16 %78, 0
  br i1 %79, label %80, label %86

80:                                               ; preds = %75
  %81 = load ptr, ptr %3, align 8, !tbaa !4
  %82 = load ptr, ptr %4, align 8, !tbaa !125
  %83 = getelementptr inbounds nuw %struct.GCtrace, ptr %82, i32 0, i32 21
  %84 = load i16, ptr %83, align 2, !tbaa !152
  %85 = zext i16 %84 to i32
  call void @gc_marktrace(ptr noundef %81, i32 noundef %85)
  br label %86

86:                                               ; preds = %80, %75
  %87 = load ptr, ptr %4, align 8, !tbaa !125
  %88 = getelementptr inbounds nuw %struct.GCtrace, ptr %87, i32 0, i32 23
  %89 = load i16, ptr %88, align 2, !tbaa !153
  %90 = icmp ne i16 %89, 0
  br i1 %90, label %91, label %97

91:                                               ; preds = %86
  %92 = load ptr, ptr %3, align 8, !tbaa !4
  %93 = load ptr, ptr %4, align 8, !tbaa !125
  %94 = getelementptr inbounds nuw %struct.GCtrace, ptr %93, i32 0, i32 23
  %95 = load i16, ptr %94, align 2, !tbaa !153
  %96 = zext i16 %95 to i32
  call void @gc_marktrace(ptr noundef %92, i32 noundef %96)
  br label %97

97:                                               ; preds = %91, %86
  %98 = load ptr, ptr %4, align 8, !tbaa !125
  %99 = getelementptr inbounds nuw %struct.GCtrace, ptr %98, i32 0, i32 24
  %100 = load i16, ptr %99, align 8, !tbaa !154
  %101 = icmp ne i16 %100, 0
  br i1 %101, label %102, label %108

102:                                              ; preds = %97
  %103 = load ptr, ptr %3, align 8, !tbaa !4
  %104 = load ptr, ptr %4, align 8, !tbaa !125
  %105 = getelementptr inbounds nuw %struct.GCtrace, ptr %104, i32 0, i32 24
  %106 = load i16, ptr %105, align 8, !tbaa !154
  %107 = zext i16 %106 to i32
  call void @gc_marktrace(ptr noundef %103, i32 noundef %107)
  br label %108

108:                                              ; preds = %102, %97
  %109 = load ptr, ptr %4, align 8, !tbaa !125
  %110 = getelementptr inbounds nuw %struct.GCtrace, ptr %109, i32 0, i32 12
  %111 = getelementptr inbounds nuw %struct.GCRef, ptr %110, i32 0, i32 0
  %112 = load i64, ptr %111, align 8, !tbaa !155
  %113 = inttoptr i64 %112 to ptr
  %114 = getelementptr inbounds nuw %struct.GChead, ptr %113, i32 0, i32 1
  %115 = load i8, ptr %114, align 8, !tbaa !30
  %116 = zext i8 %115 to i32
  %117 = and i32 %116, 3
  %118 = icmp ne i32 %117, 0
  br i1 %118, label %119, label %126

119:                                              ; preds = %108
  %120 = load ptr, ptr %3, align 8, !tbaa !4
  %121 = load ptr, ptr %4, align 8, !tbaa !125
  %122 = getelementptr inbounds nuw %struct.GCtrace, ptr %121, i32 0, i32 12
  %123 = getelementptr inbounds nuw %struct.GCRef, ptr %122, i32 0, i32 0
  %124 = load i64, ptr %123, align 8, !tbaa !155
  %125 = inttoptr i64 %124 to ptr
  call void @gc_mark(ptr noundef %120, ptr noundef %125)
  br label %126

126:                                              ; preds = %119, %108
  store i32 0, ptr %6, align 4
  br label %127

127:                                              ; preds = %126, %13
  call void @llvm.lifetime.end.p0(i64 4, ptr %5) #7
  %128 = load i32, ptr %6, align 4
  switch i32 %128, label %130 [
    i32 0, label %129
    i32 1, label %129
  ]

129:                                              ; preds = %127, %127
  ret void

130:                                              ; preds = %127
  unreachable
}