; Function Attrs: nofree nosync nounwind memory(readwrite, inaccessiblemem: none) uwtable
define internal fastcc void @gc_traverse_trace(ptr noundef %0, ptr noundef readonly captures(none) %1) unnamed_addr #3 {
  %3 = getelementptr inbounds nuw i8, ptr %1, i64 104
  %4 = load i16, ptr %3, align 8, !tbaa !133
  %5 = icmp eq i16 %4, 0
  br i1 %5, label %97, label %6

6:                                                ; preds = %2
  %7 = getelementptr inbounds nuw i8, ptr %1, i64 40
  %8 = load i32, ptr %7, align 8, !tbaa !119
  %9 = icmp ult i32 %8, 32765
  br i1 %9, label %.lr.ph, label %._crit_edge

.lr.ph:                                           ; preds = %6
  %10 = getelementptr inbounds nuw i8, ptr %1, i64 32
  br label %11

11:                                               ; preds = %.lr.ph, %36
  %.037 = phi i32 [ %8, %.lr.ph ], [ %37, %36 ]
  %12 = load ptr, ptr %10, align 8, !tbaa !134
  %13 = zext nneg i32 %.037 to i64
  %14 = getelementptr inbounds nuw %union.IRIns, ptr %12, i64 %13
  %15 = getelementptr inbounds nuw i8, ptr %14, i64 5
  %16 = load i8, ptr %15, align 1, !tbaa !23
  %17 = icmp eq i8 %16, 24
  br i1 %17, label %18, label %26

18:                                               ; preds = %11
  %19 = getelementptr inbounds nuw i8, ptr %14, i64 8
  %20 = load i64, ptr %19, align 8, !tbaa !23
  %21 = inttoptr i64 %20 to ptr
  %22 = getelementptr inbounds nuw i8, ptr %21, i64 8
  %23 = load i8, ptr %22, align 8, !tbaa !23
  %24 = and i8 %23, 3
  %.not30 = icmp eq i8 %24, 0
  br i1 %.not30, label %26, label %25

25:                                               ; preds = %18
  tail call fastcc void @gc_mark(ptr noundef %0, ptr noundef nonnull %21)
  br label %26

26:                                               ; preds = %18, %25, %11
  %27 = getelementptr inbounds nuw i8, ptr %14, i64 4
  %28 = load i8, ptr %27, align 4, !tbaa !23
  %29 = and i8 %28, 31
  %30 = zext nneg i8 %29 to i32
  %31 = shl nuw i32 1, %30
  %32 = and i32 %31, 6315993
  %.not31 = icmp eq i32 %32, 0
  br i1 %.not31, label %36, label %33

33:                                               ; preds = %26
  %34 = load i8, ptr %15, align 1, !tbaa !23
  %.not32 = icmp ne i8 %34, 27
  %35 = zext i1 %.not32 to i32
  %spec.select = add nuw nsw i32 %.037, %35
  br label %36

36:                                               ; preds = %33, %26
  %.1 = phi i32 [ %.037, %26 ], [ %spec.select, %33 ]
  %37 = add nuw nsw i32 %.1, 1
  %38 = icmp ult i32 %.1, 32764
  br i1 %38, label %11, label %._crit_edge, !llvm.loop !135

._crit_edge:                                      ; preds = %36, %6
  %39 = getelementptr inbounds nuw i8, ptr %1, i64 106
  %40 = load i16, ptr %39, align 2, !tbaa !136
  %.not = icmp eq i16 %40, 0
  br i1 %.not, label %gc_marktrace.exit, label %41

41:                                               ; preds = %._crit_edge
  %42 = getelementptr inbounds nuw i8, ptr %0, i64 1120
  %43 = load ptr, ptr %42, align 8, !tbaa !107
  %44 = zext i16 %40 to i64
  %45 = getelementptr inbounds nuw %struct.GCRef, ptr %43, i64 %44
  %46 = load i64, ptr %45, align 8, !tbaa !22
  %47 = inttoptr i64 %46 to ptr
  %48 = getelementptr inbounds nuw i8, ptr %47, i64 8
  %49 = load i8, ptr %48, align 8, !tbaa !23
  %50 = and i8 %49, 3
  %.not.i = icmp eq i8 %50, 0
  br i1 %.not.i, label %gc_marktrace.exit, label %51

51:                                               ; preds = %41
  %52 = and i8 %49, -4
  store i8 %52, ptr %48, align 8, !tbaa !23
  %53 = getelementptr inbounds nuw i8, ptr %0, i64 56
  %54 = load i64, ptr %53, align 8, !tbaa !75
  %55 = getelementptr inbounds nuw i8, ptr %47, i64 24
  store i64 %54, ptr %55, align 8, !tbaa !23
  store i64 %46, ptr %53, align 8, !tbaa !75
  br label %gc_marktrace.exit

gc_marktrace.exit:                                ; preds = %51, %41, %._crit_edge
  %56 = getelementptr inbounds nuw i8, ptr %1, i64 110
  %57 = load i16, ptr %56, align 2, !tbaa !137
  %.not27 = icmp eq i16 %57, 0
  br i1 %.not27, label %gc_marktrace.exit34, label %58

58:                                               ; preds = %gc_marktrace.exit
  %59 = getelementptr inbounds nuw i8, ptr %0, i64 1120
  %60 = load ptr, ptr %59, align 8, !tbaa !107
  %61 = zext i16 %57 to i64
  %62 = getelementptr inbounds nuw %struct.GCRef, ptr %60, i64 %61
  %63 = load i64, ptr %62, align 8, !tbaa !22
  %64 = inttoptr i64 %63 to ptr
  %65 = getelementptr inbounds nuw i8, ptr %64, i64 8
  %66 = load i8, ptr %65, align 8, !tbaa !23
  %67 = and i8 %66, 3
  %.not.i33 = icmp eq i8 %67, 0
  br i1 %.not.i33, label %gc_marktrace.exit34, label %68

68:                                               ; preds = %58
  %69 = and i8 %66, -4
  store i8 %69, ptr %65, align 8, !tbaa !23
  %70 = getelementptr inbounds nuw i8, ptr %0, i64 56
  %71 = load i64, ptr %70, align 8, !tbaa !75
  %72 = getelementptr inbounds nuw i8, ptr %64, i64 24
  store i64 %71, ptr %72, align 8, !tbaa !23
  store i64 %63, ptr %70, align 8, !tbaa !75
  br label %gc_marktrace.exit34

gc_marktrace.exit34:                              ; preds = %68, %58, %gc_marktrace.exit
  %73 = getelementptr inbounds nuw i8, ptr %1, i64 112
  %74 = load i16, ptr %73, align 8, !tbaa !138
  %.not28 = icmp eq i16 %74, 0
  br i1 %.not28, label %gc_marktrace.exit36, label %75

75:                                               ; preds = %gc_marktrace.exit34
  %76 = getelementptr inbounds nuw i8, ptr %0, i64 1120
  %77 = load ptr, ptr %76, align 8, !tbaa !107
  %78 = zext i16 %74 to i64
  %79 = getelementptr inbounds nuw %struct.GCRef, ptr %77, i64 %78
  %80 = load i64, ptr %79, align 8, !tbaa !22
  %81 = inttoptr i64 %80 to ptr
  %82 = getelementptr inbounds nuw i8, ptr %81, i64 8
  %83 = load i8, ptr %82, align 8, !tbaa !23
  %84 = and i8 %83, 3
  %.not.i35 = icmp eq i8 %84, 0
  br i1 %.not.i35, label %gc_marktrace.exit36, label %85

85:                                               ; preds = %75
  %86 = and i8 %83, -4
  store i8 %86, ptr %82, align 8, !tbaa !23
  %87 = getelementptr inbounds nuw i8, ptr %0, i64 56
  %88 = load i64, ptr %87, align 8, !tbaa !75
  %89 = getelementptr inbounds nuw i8, ptr %81, i64 24
  store i64 %88, ptr %89, align 8, !tbaa !23
  store i64 %80, ptr %87, align 8, !tbaa !75
  br label %gc_marktrace.exit36

gc_marktrace.exit36:                              ; preds = %85, %75, %gc_marktrace.exit34
  %90 = getelementptr inbounds nuw i8, ptr %1, i64 64
  %91 = load i64, ptr %90, align 8, !tbaa !139
  %92 = inttoptr i64 %91 to ptr
  %93 = getelementptr inbounds nuw i8, ptr %92, i64 8
  %94 = load i8, ptr %93, align 8, !tbaa !23
  %95 = and i8 %94, 3
  %.not29 = icmp eq i8 %95, 0
  br i1 %.not29, label %97, label %96

96:                                               ; preds = %gc_marktrace.exit36
  tail call fastcc void @gc_mark(ptr noundef %0, ptr noundef nonnull %92)
  br label %97

97:                                               ; preds = %gc_marktrace.exit36, %96, %2
  ret void
}